; ModuleID = '40/1790.c'
source_filename = "40/1790.c"
target datalayout = "e-m:e-p270:32:32-p271:32:32-p272:64:64-i64:64-f80:128-n8:16:32:64-S128"
target triple = "x86_64-pc-linux-gnu"

@.str = private unnamed_addr constant [16 x i8] c"%lf%lf%lf%lf%lf\00", align 1
@.str.1 = private unnamed_addr constant [14 x i8] c"Invalid input\00", align 1
@.str.2 = private unnamed_addr constant [6 x i8] c"%.4lf\00", align 1

; Function Attrs: noinline nounwind uwtable
define dso_local i32 @main() #0 {
  %1 = alloca i32, align 4
  %2 = alloca double, align 8
  %3 = alloca double, align 8
  %4 = alloca double, align 8
  %5 = alloca double, align 8
  %6 = alloca double, align 8
  %7 = alloca double, align 8
  %8 = alloca double, align 8
  store i32 0, i32* %1, align 4
  %9 = call i32 (i8*, ...) @__isoc99_scanf(i8* getelementptr inbounds ([16 x i8], [16 x i8]* @.str, i64 0, i64 0), double* %2, double* %3, double* %4, double* %5, double* %8)
  %10 = load double, double* %8, align 8
  %11 = fdiv double %10, 3.600000e+02
  %12 = fmul double %11, 2.000000e+00
  %13 = fmul double %12, 1.000000e+02
  store double %13, double* %8, align 8
  %14 = load double, double* %2, align 8
  %15 = load double, double* %3, align 8
  %16 = fadd double %14, %15
  %17 = load double, double* %4, align 8
  %18 = fadd double %16, %17
  %19 = load double, double* %5, align 8
  %20 = fadd double %18, %19
  %21 = fdiv double %20, 2.000000e+00
  store double %21, double* %6, align 8
  %22 = load double, double* %6, align 8
  %23 = load double, double* %2, align 8
  %24 = fsub double %22, %23
  %25 = load double, double* %6, align 8
  %26 = load double, double* %3, align 8
  %27 = fsub double %25, %26
  %28 = fmul double %24, %27
  %29 = load double, double* %6, align 8
  %30 = load double, double* %4, align 8
  %31 = fsub double %29, %30
  %32 = fmul double %28, %31
  %33 = load double, double* %6, align 8
  %34 = load double, double* %5, align 8
  %35 = fsub double %33, %34
  %36 = fmul double %32, %35
  %37 = load double, double* %2, align 8
  %38 = load double, double* %3, align 8
  %39 = fmul double %37, %38
  %40 = load double, double* %4, align 8
  %41 = fmul double %39, %40
  %42 = load double, double* %5, align 8
  %43 = fmul double %41, %42
  %44 = load double, double* %8, align 8
  %45 = fdiv double %44, 2.000000e+00
  %46 = call double @cos(double %45) #3
  %47 = fmul double %43, %46
  %48 = load double, double* %8, align 8
  %49 = fdiv double %48, 2.000000e+00
  %50 = call double @cos(double %49) #3
  %51 = fmul double %47, %50
  %52 = fsub double %36, %51
  %53 = fcmp olt double %52, 0.000000e+00
  br i1 %53, label %54, label %56

54:                                               ; preds = %0
  %55 = call i32 (i8*, ...) @printf(i8* getelementptr inbounds ([14 x i8], [14 x i8]* @.str.1, i64 0, i64 0))
  store i32 0, i32* %1, align 4
  br label %91

56:                                               ; preds = %0
  %57 = load double, double* %6, align 8
  %58 = load double, double* %2, align 8
  %59 = fsub double %57, %58
  %60 = load double, double* %6, align 8
  %61 = load double, double* %3, align 8
  %62 = fsub double %60, %61
  %63 = fmul double %59, %62
  %64 = load double, double* %6, align 8
  %65 = load double, double* %4, align 8
  %66 = fsub double %64, %65
  %67 = fmul double %63, %66
  %68 = load double, double* %6, align 8
  %69 = load double, double* %5, align 8
  %70 = fsub double %68, %69
  %71 = fmul double %67, %70
  %72 = load double, double* %2, align 8
  %73 = load double, double* %3, align 8
  %74 = fmul double %72, %73
  %75 = load double, double* %4, align 8
  %76 = fmul double %74, %75
  %77 = load double, double* %5, align 8
  %78 = fmul double %76, %77
  %79 = load double, double* %8, align 8
  %80 = fdiv double %79, 2.000000e+00
  %81 = call double @cos(double %80) #3
  %82 = fmul double %78, %81
  %83 = load double, double* %8, align 8
  %84 = fdiv double %83, 2.000000e+00
  %85 = call double @cos(double %84) #3
  %86 = fmul double %82, %85
  %87 = fsub double %71, %86
  %88 = call double @sqrt(double %87) #3
  store double %88, double* %7, align 8
  %89 = load double, double* %7, align 8
  %90 = call i32 (i8*, ...) @printf(i8* getelementptr inbounds ([6 x i8], [6 x i8]* @.str.2, i64 0, i64 0), double %89)
  store i32 0, i32* %1, align 4
  br label %91

91:                                               ; preds = %56, %54
  %92 = load i32, i32* %1, align 4
  ret i32 %92
}

declare dso_local i32 @__isoc99_scanf(i8*, ...) #1

; Function Attrs: nounwind
declare dso_local double @cos(double) #2

declare dso_local i32 @printf(i8*, ...) #1

; Function Attrs: nounwind
declare dso_local double @sqrt(double) #2


!llvm.module.flags = !{!0}
!llvm.ident = !{!1}

!0 = !{i32 1, !"wchar_size", i32 4}
!1 = !{!"clang version 10.0.0-4ubuntu1 "}
